target datalayout = "e-m:e-p270:32:32-p271:32:32-p272:64:64-i64:64-i128:128-f80:128-n8:16:32:64-S128"
target triple = "x86_64-pc-linux-gnu"

%struct.yyguts_t = type { ptr, ptr, ptr, i64, i64, ptr, i8, i32, i32, ptr, i32, i32, i32, i32, i32, ptr, i32, ptr, i32, i32, ptr, i32, i32 }
%struct._dtd_preparse_scanner_state = type { ptr, ptr, i32, ptr, ptr, ptr, ptr, ptr }

@dtd_location.loc = internal global ptr null, align 8
@.str.13 = private unnamed_addr constant [31 x i8] c"<? wireshark:location %s:%u ?>\00", align 1
@.str.14 = private unnamed_addr constant [7 x i8] c"%s%c%s\00", align 1
@.str.15 = private unnamed_addr constant [2 x i8] c"r\00", align 1
@.str.16 = private unnamed_addr constant [37 x i8] c"Could not open file: '%s', error: %s\00", align 1
@.str.17 = private unnamed_addr constant [29 x i8] c"Can't initialize scanner: %s\00", align 1

; Function Attrs: nounwind null_pointer_is_valid sspstrong uwtable
define internal i32 @yy_init_globals(ptr noundef %0) #2 {
  %2 = alloca ptr, align 8
  %3 = alloca ptr, align 8
  store ptr %0, ptr %2, align 8
  call void @llvm.lifetime.start.p0(i64 8, ptr %3) #16
  %4 = load ptr, ptr %2, align 8
  store ptr %4, ptr %3, align 8
  %5 = load ptr, ptr %3, align 8
  %6 = getelementptr inbounds nuw %struct.yyguts_t, ptr %5, i32 0, i32 5
  store ptr null, ptr %6, align 8
  %7 = load ptr, ptr %3, align 8
  %8 = getelementptr inbounds nuw %struct.yyguts_t, ptr %7, i32 0, i32 3
  store i64 0, ptr %8, align 8
  %9 = load ptr, ptr %3, align 8
  %10 = getelementptr inbounds nuw %struct.yyguts_t, ptr %9, i32 0, i32 4
  store i64 0, ptr %10, align 8
  %11 = load ptr, ptr %3, align 8
  %12 = getelementptr inbounds nuw %struct.yyguts_t, ptr %11, i32 0, i32 9
  store ptr null, ptr %12, align 8
  %13 = load ptr, ptr %3, align 8
  %14 = getelementptr inbounds nuw %struct.yyguts_t, ptr %13, i32 0, i32 10
  store i32 0, ptr %14, align 8
  %15 = load ptr, ptr %3, align 8
  %16 = getelementptr inbounds nuw %struct.yyguts_t, ptr %15, i32 0, i32 11
  store i32 0, ptr %16, align 4
  %17 = load ptr, ptr %3, align 8
  %18 = getelementptr inbounds nuw %struct.yyguts_t, ptr %17, i32 0, i32 13
  store i32 0, ptr %18, align 4
  %19 = load ptr, ptr %3, align 8
  %20 = getelementptr inbounds nuw %struct.yyguts_t, ptr %19, i32 0, i32 14
  store i32 0, ptr %20, align 8
  %21 = load ptr, ptr %3, align 8
  %22 = getelementptr inbounds nuw %struct.yyguts_t, ptr %21, i32 0, i32 15
  store ptr null, ptr %22, align 8
  %23 = load ptr, ptr %3, align 8
  %24 = getelementptr inbounds nuw %struct.yyguts_t, ptr %23, i32 0, i32 1
  store ptr null, ptr %24, align 8
  %25 = load ptr, ptr %3, align 8
  %26 = getelementptr inbounds nuw %struct.yyguts_t, ptr %25, i32 0, i32 2
  store ptr null, ptr %26, align 8
  call void @llvm.lifetime.end.p0(i64 8, ptr %3) #16
  ret i32 0
}

; Function Attrs: alwaysinline nounwind
define internal ptr @memset.inline(ptr %0, i32 %1, i64 %2) #9 {
  %4 = alloca ptr, align 8
  %5 = alloca i32, align 4
  %6 = alloca i64, align 8
  store ptr %0, ptr %4, align 8
  store i32 %1, ptr %5, align 4
  store i64 %2, ptr %6, align 8
  %7 = load ptr, ptr %4, align 8
  %8 = load i32, ptr %5, align 4
  %9 = load i64, ptr %6, align 8
  %10 = load ptr, ptr %4, align 8
  %11 = call i64 @llvm.objectsize.i64.p0(ptr %10, i1 false, i1 true, i1 true)
  %12 = call ptr @__memset_chk(ptr noundef %7, i32 noundef %8, i64 noundef %9, i64 noundef %11) #16
  ret ptr %12
}

; Function Attrs: nounwind null_pointer_is_valid sspstrong uwtable
define hidden void @Dtd_PreParse_set_extra(ptr noundef %0, ptr noundef %1) #2 {
  %3 = alloca ptr, align 8
  %4 = alloca ptr, align 8
  %5 = alloca ptr, align 8
  store ptr %0, ptr %3, align 8
  store ptr %1, ptr %4, align 8
  call void @llvm.lifetime.start.p0(i64 8, ptr %5) #16
  %6 = load ptr, ptr %4, align 8
  store ptr %6, ptr %5, align 8
  %7 = load ptr, ptr %3, align 8
  %8 = load ptr, ptr %5, align 8
  %9 = getelementptr inbounds nuw %struct.yyguts_t, ptr %8, i32 0, i32 0
  store ptr %7, ptr %9, align 8
  call void @llvm.lifetime.end.p0(i64 8, ptr %5) #16
  ret void
}

; Function Attrs: null_pointer_is_valid sspstrong uwtable
define hidden ptr @dtd_location(ptr noundef %0) #0 {
  %2 = alloca ptr, align 8
  %3 = alloca ptr, align 8
  store ptr %0, ptr %3, align 8
  %4 = load ptr, ptr @dtd_location.loc, align 8
  call void @g_free(ptr noundef %4)
  %5 = load ptr, ptr %3, align 8
  %6 = icmp ne ptr %5, null
  br i1 %6, label %8, label %7

7:                                                ; preds = %1
  store ptr null, ptr %2, align 8
  br label %17

8:                                                ; preds = %1
  %9 = load ptr, ptr %3, align 8
  %10 = getelementptr inbounds nuw %struct._dtd_preparse_scanner_state, ptr %9, i32 0, i32 1
  %11 = load ptr, ptr %10, align 8
  %12 = load ptr, ptr %3, align 8
  %13 = getelementptr inbounds nuw %struct._dtd_preparse_scanner_state, ptr %12, i32 0, i32 2
  %14 = load i32, ptr %13, align 8
  %15 = call noalias ptr (ptr, ptr, ...) @wmem_strdup_printf(ptr noundef null, ptr noundef @.str.13, ptr noundef %11, i32 noundef %14)
  store ptr %15, ptr @dtd_location.loc, align 8
  %16 = load ptr, ptr @dtd_location.loc, align 8
  store ptr %16, ptr %2, align 8
  br label %17

17:                                               ; preds = %8, %7
  %18 = load ptr, ptr %2, align 8
  ret ptr %18
}

; Function Attrs: nounwind null_pointer_is_valid sspstrong uwtable
define hidden void @Dtd_PreParse_set_in(ptr noundef %0, ptr noundef %1) #2 {
  %3 = alloca ptr, align 8
  %4 = alloca ptr, align 8
  %5 = alloca ptr, align 8
  store ptr %0, ptr %3, align 8
  store ptr %1, ptr %4, align 8
  call void @llvm.lifetime.start.p0(i64 8, ptr %5) #16
  %6 = load ptr, ptr %4, align 8
  store ptr %6, ptr %5, align 8
  %7 = load ptr, ptr %3, align 8
  %8 = load ptr, ptr %5, align 8
  %9 = getelementptr inbounds nuw %struct.yyguts_t, ptr %8, i32 0, i32 1
  store ptr %7, ptr %9, align 8
  call void @llvm.lifetime.end.p0(i64 8, ptr %5) #16
  ret void
}

; Function Attrs: null_pointer_is_valid sspstrong uwtable
define hidden i32 @Dtd_PreParse_lex_init(ptr noundef %0) #0 {
  %2 = alloca i32, align 4
  %3 = alloca ptr, align 8
  store ptr %0, ptr %3, align 8
  %4 = load ptr, ptr %3, align 8
  %5 = icmp eq ptr %4, null
  br i1 %5, label %6, label %8

6:                                                ; preds = %1
  %7 = call ptr @__errno_location() #20
  store i32 22, ptr %7, align 4
  store i32 1, ptr %2, align 4
  br label %23

8:                                                ; preds = %1
  %9 = call noalias ptr @malloc(i64 noundef 144) #18
  %10 = load ptr, ptr %3, align 8
  store ptr %9, ptr %10, align 8
  %11 = load ptr, ptr %3, align 8
  %12 = load ptr, ptr %11, align 8
  %13 = icmp eq ptr %12, null
  br i1 %13, label %14, label %16

14:                                               ; preds = %8
  %15 = call ptr @__errno_location() #20
  store i32 12, ptr %15, align 4
  store i32 1, ptr %2, align 4
  br label %23

16:                                               ; preds = %8
  %17 = load ptr, ptr %3, align 8
  %18 = load ptr, ptr %17, align 8
  %19 = call ptr @memset.inline(ptr noundef %18, i32 noundef 0, i64 noundef 144) #16
  %20 = load ptr, ptr %3, align 8
  %21 = load ptr, ptr %20, align 8
  %22 = call i32 @yy_init_globals(ptr noundef %21)
  store i32 %22, ptr %2, align 4
  br label %23

23:                                               ; preds = %16, %14, %6
  %24 = load i32, ptr %2, align 4
  ret i32 %24
}

; Function Attrs: null_pointer_is_valid sspstrong uwtable
define hidden ptr @dtd_preparse(ptr noundef %0, ptr noundef %1, ptr noundef %2) #0 {
  %4 = alloca ptr, align 8
  %5 = alloca ptr, align 8
  %6 = alloca ptr, align 8
  %7 = alloca ptr, align 8
  %8 = alloca ptr, align 8
  %9 = alloca ptr, align 8
  %10 = alloca ptr, align 8
  %11 = alloca %struct._dtd_preparse_scanner_state, align 8
  %12 = alloca i32, align 4
  store ptr %0, ptr %5, align 8
  store ptr %1, ptr %6, align 8
  store ptr %2, ptr %7, align 8
  call void @llvm.lifetime.start.p0(i64 8, ptr %8) #16
  %13 = load ptr, ptr %5, align 8
  %14 = load ptr, ptr %6, align 8
  %15 = call noalias ptr (ptr, ptr, ...) @wmem_strdup_printf(ptr noundef null, ptr noundef @.str.14, ptr noundef %13, i32 noundef 47, ptr noundef %14)
  store ptr %15, ptr %8, align 8
  call void @llvm.lifetime.start.p0(i64 8, ptr %9) #16
  call void @llvm.lifetime.start.p0(i64 8, ptr %10) #16
  call void @llvm.lifetime.start.p0(i64 64, ptr %11) #16
  %16 = load ptr, ptr %8, align 8
  %17 = call noalias ptr @fopen(ptr noundef %16, ptr noundef @.str.15)
  store ptr %17, ptr %9, align 8
  %18 = load ptr, ptr %9, align 8
  %19 = icmp ne ptr %18, null
  br i1 %19, label %31, label %20

20:                                               ; preds = %3
  %21 = load ptr, ptr %7, align 8
  %22 = icmp ne ptr %21, null
  br i1 %22, label %23, label %29

23:                                               ; preds = %20
  %24 = load ptr, ptr %7, align 8
  %25 = load ptr, ptr %8, align 8
  %26 = call ptr @__errno_location() #20
  %27 = load i32, ptr %26, align 4
  %28 = call ptr @g_strerror(i32 noundef %27) #20
  call void (ptr, ptr, ...) @g_string_append_printf(ptr noundef %24, ptr noundef @.str.16, ptr noundef %25, ptr noundef %28)
  br label %29

29:                                               ; preds = %23, %20
  %30 = load ptr, ptr %8, align 8
  call void @g_free(ptr noundef %30)
  store ptr null, ptr %4, align 8
  store i32 1, ptr %12, align 4
  br label %78

31:                                               ; preds = %3
  %32 = call i32 @Dtd_PreParse_lex_init(ptr noundef %10)
  %33 = icmp ne i32 %32, 0
  br i1 %33, label %34, label %46

34:                                               ; preds = %31
  %35 = load ptr, ptr %7, align 8
  %36 = icmp ne ptr %35, null
  br i1 %36, label %37, label %42

37:                                               ; preds = %34
  %38 = load ptr, ptr %7, align 8
  %39 = call ptr @__errno_location() #20
  %40 = load i32, ptr %39, align 4
  %41 = call ptr @strerror(i32 noundef %40) #16
  call void (ptr, ptr, ...) @g_string_append_printf(ptr noundef %38, ptr noundef @.str.17, ptr noundef %41)
  br label %42

42:                                               ; preds = %37, %34
  %43 = load ptr, ptr %9, align 8
  %44 = call i32 @fclose(ptr noundef %43)
  %45 = load ptr, ptr %8, align 8
  call void @g_free(ptr noundef %45)
  store ptr null, ptr %4, align 8
  store i32 1, ptr %12, align 4
  br label %78

46:                                               ; preds = %31
  %47 = load ptr, ptr %9, align 8
  %48 = load ptr, ptr %10, align 8
  call void @Dtd_PreParse_set_in(ptr noundef %47, ptr noundef %48)
  %49 = load ptr, ptr %5, align 8
  %50 = getelementptr inbounds nuw %struct._dtd_preparse_scanner_state, ptr %11, i32 0, i32 0
  store ptr %49, ptr %50, align 8
  %51 = load ptr, ptr %6, align 8
  %52 = getelementptr inbounds nuw %struct._dtd_preparse_scanner_state, ptr %11, i32 0, i32 1
  store ptr %51, ptr %52, align 8
  %53 = getelementptr inbounds nuw %struct._dtd_preparse_scanner_state, ptr %11, i32 0, i32 2
  store i32 1, ptr %53, align 8
  %54 = load ptr, ptr %7, align 8
  %55 = getelementptr inbounds nuw %struct._dtd_preparse_scanner_state, ptr %11, i32 0, i32 3
  store ptr %54, ptr %55, align 8
  %56 = call ptr @g_hash_table_new(ptr noundef @g_str_hash, ptr noundef @g_str_equal)
  %57 = getelementptr inbounds nuw %struct._dtd_preparse_scanner_state, ptr %11, i32 0, i32 4
  store ptr %56, ptr %57, align 8
  %58 = call ptr @dtd_location(ptr noundef %11)
  %59 = call ptr @g_string_new(ptr noundef %58)
  %60 = getelementptr inbounds nuw %struct._dtd_preparse_scanner_state, ptr %11, i32 0, i32 6
  store ptr %59, ptr %60, align 8
  %61 = getelementptr inbounds nuw %struct._dtd_preparse_scanner_state, ptr %11, i32 0, i32 5
  store ptr %59, ptr %61, align 8
  %62 = getelementptr inbounds nuw %struct._dtd_preparse_scanner_state, ptr %11, i32 0, i32 7
  store ptr null, ptr %62, align 8
  %63 = load ptr, ptr %10, align 8
  call void @Dtd_PreParse_set_extra(ptr noundef %11, ptr noundef %63)
  %64 = load ptr, ptr %10, align 8
  %65 = call i32 @Dtd_PreParse_lex(ptr noundef %64)
  %66 = load ptr, ptr %10, align 8
  %67 = call i32 @Dtd_PreParse_lex_destroy(ptr noundef %66)
  %68 = load ptr, ptr %9, align 8
  %69 = call i32 @fclose(ptr noundef %68)
  %70 = getelementptr inbounds nuw %struct._dtd_preparse_scanner_state, ptr %11, i32 0, i32 4
  %71 = load ptr, ptr %70, align 8
  %72 = call i32 @g_hash_table_foreach_remove(ptr noundef %71, ptr noundef @free_gstring_hash_items, ptr noundef null)
  %73 = getelementptr inbounds nuw %struct._dtd_preparse_scanner_state, ptr %11, i32 0, i32 4
  %74 = load ptr, ptr %73, align 8
  call void @g_hash_table_destroy(ptr noundef %74)
  %75 = load ptr, ptr %8, align 8
  call void @g_free(ptr noundef %75)
  %76 = getelementptr inbounds nuw %struct._dtd_preparse_scanner_state, ptr %11, i32 0, i32 6
  %77 = load ptr, ptr %76, align 8
  store ptr %77, ptr %4, align 8
  store i32 1, ptr %12, align 4
  br label %78

78:                                               ; preds = %46, %42, %29
  call void @llvm.lifetime.end.p0(i64 64, ptr %11) #16
  call void @llvm.lifetime.end.p0(i64 8, ptr %10) #16
  call void @llvm.lifetime.end.p0(i64 8, ptr %9) #16
  call void @llvm.lifetime.end.p0(i64 8, ptr %8) #16
  %79 = load ptr, ptr %4, align 8
  ret ptr %79
}