; Function Attrs: null_pointer_is_valid sspstrong uwtable
define hidden ptr @dtd_preparse(ptr noundef %0, ptr noundef %1, ptr noundef %2) local_unnamed_addr #0 {
  %4 = alloca %struct._dtd_preparse_scanner_state, align 8
  %5 = tail call noalias ptr (ptr, ptr, ...) @wmem_strdup_printf(ptr noundef null, ptr noundef nonnull @.str.14, ptr noundef %0, i32 noundef 47, ptr noundef %1)
  call void @llvm.lifetime.start.p0(i64 64, ptr nonnull %4) #27
  %6 = tail call noalias ptr @fopen(ptr noundef %5, ptr noundef nonnull @.str.15)
  %.not = icmp eq ptr %6, null
  br i1 %.not, label %7, label %13

7:                                                ; preds = %3
  %.not21 = icmp eq ptr %2, null
  br i1 %.not21, label %12, label %8

8:                                                ; preds = %7
  %9 = tail call ptr @__errno_location() #28
  %10 = load i32, ptr %9, align 4
  %11 = tail call ptr @g_strerror(i32 noundef %10) #28
  tail call void (ptr, ptr, ...) @g_string_append_printf(ptr noundef nonnull %2, ptr noundef nonnull @.str.16, ptr noundef %5, ptr noundef %11)
  br label %12

12:                                               ; preds = %8, %7
  tail call void @g_free(ptr noundef %5)
  br label %41

13:                                               ; preds = %3
  %calloc.i = tail call dereferenceable_or_null(144) ptr @calloc(i64 1, i64 144)
  %14 = icmp eq ptr %calloc.i, null
  br i1 %14, label %15, label %21

15:                                               ; preds = %13
  %16 = tail call ptr @__errno_location() #28
  store i32 12, ptr %16, align 4
  %.not23 = icmp eq ptr %2, null
  br i1 %.not23, label %19, label %17

17:                                               ; preds = %15
  %18 = tail call ptr @strerror(i32 noundef 12) #27
  tail call void (ptr, ptr, ...) @g_string_append_printf(ptr noundef nonnull %2, ptr noundef nonnull @.str.17, ptr noundef %18)
  br label %19

19:                                               ; preds = %17, %15
  %20 = tail call i32 @fclose(ptr noundef nonnull %6)
  tail call void @g_free(ptr noundef %5)
  br label %41

21:                                               ; preds = %13
  %22 = getelementptr inbounds nuw i8, ptr %calloc.i, i64 8
  store ptr %6, ptr %22, align 8
  store ptr %0, ptr %4, align 8
  %23 = getelementptr inbounds nuw i8, ptr %4, i64 8
  store ptr %1, ptr %23, align 8
  %24 = getelementptr inbounds nuw i8, ptr %4, i64 16
  store i32 1, ptr %24, align 8
  %25 = getelementptr inbounds nuw i8, ptr %4, i64 24
  store ptr %2, ptr %25, align 8
  %26 = tail call ptr @g_hash_table_new(ptr noundef nonnull @g_str_hash, ptr noundef nonnull @g_str_equal)
  %27 = getelementptr inbounds nuw i8, ptr %4, i64 32
  store ptr %26, ptr %27, align 8
  %28 = load ptr, ptr @dtd_location.loc, align 8
  tail call void @g_free(ptr noundef %28)
  %29 = tail call noalias ptr (ptr, ptr, ...) @wmem_strdup_printf(ptr noundef null, ptr noundef nonnull @.str.13, ptr noundef %1, i32 noundef 1)
  store ptr %29, ptr @dtd_location.loc, align 8
  %30 = tail call ptr @g_string_new(ptr noundef %29)
  %31 = getelementptr inbounds nuw i8, ptr %4, i64 48
  store ptr %30, ptr %31, align 8
  %32 = getelementptr inbounds nuw i8, ptr %4, i64 40
  store ptr %30, ptr %32, align 8
  %33 = getelementptr inbounds nuw i8, ptr %4, i64 56
  store ptr null, ptr %33, align 8
  store ptr %4, ptr %calloc.i, align 8
  %34 = call i32 @Dtd_PreParse_lex(ptr noundef nonnull %calloc.i)
  %35 = call i32 @Dtd_PreParse_lex_destroy(ptr noundef nonnull %calloc.i)
  %36 = call i32 @fclose(ptr noundef nonnull %6)
  %37 = load ptr, ptr %27, align 8
  %38 = call i32 @g_hash_table_foreach_remove(ptr noundef %37, ptr noundef nonnull @free_gstring_hash_items, ptr noundef null)
  %39 = load ptr, ptr %27, align 8
  call void @g_hash_table_destroy(ptr noundef %39)
  call void @g_free(ptr noundef %5)
  %40 = load ptr, ptr %31, align 8
  br label %41

41:                                               ; preds = %21, %19, %12
  %.0 = phi ptr [ null, %19 ], [ %40, %21 ], [ null, %12 ]
  call void @llvm.lifetime.end.p0(i64 64, ptr nonnull %4) #27
  ret ptr %.0
}